; Function Attrs: mustprogress uwtable
define internal fastcc void @_ZN6icu_77L14initSingletonsEPKcR10UErrorCode(ptr noundef readonly captures(none) %0, ptr noundef nonnull align 4 dereferenceable(4) %1) unnamed_addr #6 personality ptr @__gxx_personality_v0 {
  %3 = tail call i32 @strcmp(ptr noundef nonnull dereferenceable(1) %0, ptr noundef nonnull dereferenceable(5) @.str.1) #15
  %4 = icmp eq i32 %3, 0
  br i1 %4, label %5, label %17

5:                                                ; preds = %2
  %6 = load i32, ptr %1, align 4, !tbaa !30
  %7 = icmp slt i32 %6, 1
  br i1 %7, label %8, label %_ZN6icu_7713Norm2AllModes14createInstanceEPKcS2_R10UErrorCode.exit

8:                                                ; preds = %5
  %9 = tail call noundef ptr @_ZN6icu_777UMemorynwEm(i64 noundef 96) #13
  %10 = icmp eq ptr %9, null
  br i1 %10, label %11, label %12

11:                                               ; preds = %8
  store i32 7, ptr %1, align 4, !tbaa !30
  br label %_ZN6icu_7713Norm2AllModes14createInstanceEPKcS2_R10UErrorCode.exit

12:                                               ; preds = %8
  %13 = getelementptr inbounds nuw i8, ptr %9, i64 40
  store ptr null, ptr %13, align 8, !tbaa !32
  %14 = getelementptr inbounds nuw i8, ptr %9, i64 64
  tail call void @llvm.memset.p0.i64(ptr noundef nonnull align 8 dereferenceable(16) %14, i8 0, i64 16, i1 false)
  store ptr getelementptr inbounds nuw inrange(-16, 24) (i8, ptr @_ZTVN6icu_7721LoadedNormalizer2ImplE, i64 16), ptr %9, align 8, !tbaa !3
  %15 = getelementptr inbounds nuw i8, ptr %9, i64 80
  tail call void @llvm.memset.p0.i64(ptr noundef nonnull align 8 dereferenceable(16) %15, i8 0, i64 16, i1 false)
  tail call void @_ZN6icu_7721LoadedNormalizer2Impl4loadEPKcS2_R10UErrorCode(ptr noundef nonnull align 8 dereferenceable(96) %9, ptr noundef null, ptr noundef nonnull @.str.1, ptr noundef nonnull align 4 dereferenceable(4) %1)
  %16 = tail call noundef ptr @_ZN6icu_7713Norm2AllModes14createInstanceEPNS_15Normalizer2ImplER10UErrorCode(ptr noundef nonnull %9, ptr noundef nonnull align 4 dereferenceable(4) %1)
  br label %_ZN6icu_7713Norm2AllModes14createInstanceEPKcS2_R10UErrorCode.exit

_ZN6icu_7713Norm2AllModes14createInstanceEPKcS2_R10UErrorCode.exit: ; preds = %5, %11, %12
  %.0.i = phi ptr [ null, %5 ], [ null, %11 ], [ %16, %12 ]
  store ptr %.0.i, ptr @_ZN6icu_77L13nfkcSingletonE, align 8, !tbaa !34
  br label %48

17:                                               ; preds = %2
  %18 = tail call i32 @strcmp(ptr noundef nonnull dereferenceable(1) %0, ptr noundef nonnull dereferenceable(8) @.str.2) #15
  %19 = icmp eq i32 %18, 0
  br i1 %19, label %20, label %32

20:                                               ; preds = %17
  %21 = load i32, ptr %1, align 4, !tbaa !30
  %22 = icmp slt i32 %21, 1
  br i1 %22, label %23, label %_ZN6icu_7713Norm2AllModes14createInstanceEPKcS2_R10UErrorCode.exit7

23:                                               ; preds = %20
  %24 = tail call noundef ptr @_ZN6icu_777UMemorynwEm(i64 noundef 96) #13
  %25 = icmp eq ptr %24, null
  br i1 %25, label %26, label %27

26:                                               ; preds = %23
  store i32 7, ptr %1, align 4, !tbaa !30
  br label %_ZN6icu_7713Norm2AllModes14createInstanceEPKcS2_R10UErrorCode.exit7

27:                                               ; preds = %23
  %28 = getelementptr inbounds nuw i8, ptr %24, i64 40
  store ptr null, ptr %28, align 8, !tbaa !32
  %29 = getelementptr inbounds nuw i8, ptr %24, i64 64
  tail call void @llvm.memset.p0.i64(ptr noundef nonnull align 8 dereferenceable(16) %29, i8 0, i64 16, i1 false)
  store ptr getelementptr inbounds nuw inrange(-16, 24) (i8, ptr @_ZTVN6icu_7721LoadedNormalizer2ImplE, i64 16), ptr %24, align 8, !tbaa !3
  %30 = getelementptr inbounds nuw i8, ptr %24, i64 80
  tail call void @llvm.memset.p0.i64(ptr noundef nonnull align 8 dereferenceable(16) %30, i8 0, i64 16, i1 false)
  tail call void @_ZN6icu_7721LoadedNormalizer2Impl4loadEPKcS2_R10UErrorCode(ptr noundef nonnull align 8 dereferenceable(96) %24, ptr noundef null, ptr noundef nonnull @.str.2, ptr noundef nonnull align 4 dereferenceable(4) %1)
  %31 = tail call noundef ptr @_ZN6icu_7713Norm2AllModes14createInstanceEPNS_15Normalizer2ImplER10UErrorCode(ptr noundef nonnull %24, ptr noundef nonnull align 4 dereferenceable(4) %1)
  br label %_ZN6icu_7713Norm2AllModes14createInstanceEPKcS2_R10UErrorCode.exit7

_ZN6icu_7713Norm2AllModes14createInstanceEPKcS2_R10UErrorCode.exit7: ; preds = %20, %26, %27
  %.0.i6 = phi ptr [ null, %20 ], [ null, %26 ], [ %31, %27 ]
  store ptr %.0.i6, ptr @_ZN6icu_77L16nfkc_cfSingletonE, align 8, !tbaa !34
  br label %48

32:                                               ; preds = %17
  %33 = tail call i32 @strcmp(ptr noundef nonnull dereferenceable(1) %0, ptr noundef nonnull dereferenceable(9) @.str.3) #15
  %34 = icmp eq i32 %33, 0
  br i1 %34, label %35, label %47

35:                                               ; preds = %32
  %36 = load i32, ptr %1, align 4, !tbaa !30
  %37 = icmp slt i32 %36, 1
  br i1 %37, label %38, label %_ZN6icu_7713Norm2AllModes14createInstanceEPKcS2_R10UErrorCode.exit9

38:                                               ; preds = %35
  %39 = tail call noundef ptr @_ZN6icu_777UMemorynwEm(i64 noundef 96) #13
  %40 = icmp eq ptr %39, null
  br i1 %40, label %41, label %42

41:                                               ; preds = %38
  store i32 7, ptr %1, align 4, !tbaa !30
  br label %_ZN6icu_7713Norm2AllModes14createInstanceEPKcS2_R10UErrorCode.exit9

42:                                               ; preds = %38
  %43 = getelementptr inbounds nuw i8, ptr %39, i64 40
  store ptr null, ptr %43, align 8, !tbaa !32
  %44 = getelementptr inbounds nuw i8, ptr %39, i64 64
  tail call void @llvm.memset.p0.i64(ptr noundef nonnull align 8 dereferenceable(16) %44, i8 0, i64 16, i1 false)
  store ptr getelementptr inbounds nuw inrange(-16, 24) (i8, ptr @_ZTVN6icu_7721LoadedNormalizer2ImplE, i64 16), ptr %39, align 8, !tbaa !3
  %45 = getelementptr inbounds nuw i8, ptr %39, i64 80
  tail call void @llvm.memset.p0.i64(ptr noundef nonnull align 8 dereferenceable(16) %45, i8 0, i64 16, i1 false)
  tail call void @_ZN6icu_7721LoadedNormalizer2Impl4loadEPKcS2_R10UErrorCode(ptr noundef nonnull align 8 dereferenceable(96) %39, ptr noundef null, ptr noundef nonnull @.str.3, ptr noundef nonnull align 4 dereferenceable(4) %1)
  %46 = tail call noundef ptr @_ZN6icu_7713Norm2AllModes14createInstanceEPNS_15Normalizer2ImplER10UErrorCode(ptr noundef nonnull %39, ptr noundef nonnull align 4 dereferenceable(4) %1)
  br label %_ZN6icu_7713Norm2AllModes14createInstanceEPKcS2_R10UErrorCode.exit9

_ZN6icu_7713Norm2AllModes14createInstanceEPKcS2_R10UErrorCode.exit9: ; preds = %35, %41, %42
  %.0.i8 = phi ptr [ null, %35 ], [ null, %41 ], [ %46, %42 ]
  store ptr %.0.i8, ptr @_ZN6icu_77L17nfkc_scfSingletonE, align 8, !tbaa !34
  br label %48

47:                                               ; preds = %32
  tail call void @abort() #14
  unreachable

48:                                               ; preds = %_ZN6icu_7713Norm2AllModes14createInstanceEPKcS2_R10UErrorCode.exit7, %_ZN6icu_7713Norm2AllModes14createInstanceEPKcS2_R10UErrorCode.exit9, %_ZN6icu_7713Norm2AllModes14createInstanceEPKcS2_R10UErrorCode.exit
  tail call void @ucln_common_registerCleanup_77(i32 noundef 14, ptr noundef nonnull @_ZN6icu_77L31uprv_loaded_normalizer2_cleanupEv)
  ret void
}